(lp1
(dp2
S'(2, 1, 0, True, False, True, False)'
p3
(lp4
F0
aF0.97200000000000009
aF0.81000000000000005
aF0
asS'(-1, 0, 0, False, True, True, False)'
p5
(lp6
F0
aF0
aF0
aF5.5
asS'(-1, 2, 2, False, False, True, False)'
p7
(lp8
F0
aF0
aF0
aF0
asS'(3, 0, 1, False, False, True, False)'
p9
(lp10
F0
aF0
aF0
aF0
asS'(5, 0, 1, True, False, False, False)'
p11
(lp12
F0
aF0
aF0
aF0
asS'(9, 1, 1, True, False, True, False)'
p13
(lp14
F0.5
aF0
aF0
aF0
asS'(10, 0, 0, True, True, False, True)'
p15
(lp16
F0
aF0
aF-1
aF0
asS'(4, 0, 1, True, False, False, False)'
p17
(lp18
F0
aF0
aF0
aF0
asS'(-1, 0, 0, False, False, False, True)'
p19
(lp20
F0
aF0
aF0
aF0
asS'(5, 1, 0, False, False, True, True)'
p21
(lp22
F0.5
aF0
aF0
aF0
asS'(7, 1, 1, True, True, True, True)'
p23
(lp24
F0
aF0
aF0
aF0
asS'(-1, 0, 1, True, False, True, True)'
p25
(lp26
F0
aF0
aF0
aF0
asS'(-1, 1, 1, True, True, True, True)'
p27
(lp28
F0
aF0
aF0.5
aF0
asS'(5, 0, 1, True, True, False, False)'
p29
(lp30
F0
aF0
aF0
aF0
asS'(-1, 0, 0, False, True, True, True)'
p31
(lp32
F0
aF0
aF0
aF0
asS'(2, 0, 1, True, True, True, True)'
p33
(lp34
F0
aF0
aF-0.5
aF0
asS'(3, 0, 1, True, True, True, True)'
p35
(lp36
F0
aF0
aF0
aF0
asS'(3, 0, 0, False, True, True, True)'
p37
(lp38
F0
aF0
aF0
aF0
asS'(-1, 1, 0, True, True, True, True)'
p39
(lp40
F0
aF0
aF0
aF-0.5
asS'(-1, 0, 0, False, False, False, False)'
p41
(lp42
F0
aF0
aF0
aF0
asS'(-1, 1, 1, True, False, False, True)'
p43
(lp44
F0
aF1.5
aF0
aF0
asS'(3, 0, 1, False, True, True, False)'
p45
(lp46
F0
aF0
aF0
aF0
asS'(0, 2, 2, False, True, True, False)'
p47
(lp48
F0
aF0
aF0
aF1.6027200000000001
asS'(3, 0, 0, False, True, True, False)'
p49
(lp50
F0
aF0
aF0
aF0
asS'(-1, 0, 1, True, True, True, True)'
p51
(lp52
F0
aF0
aF0
aF0
asS'(-1, 1, 1, True, False, True, True)'
p53
(lp54
F0
aF0
aF0
aF0
asS'(2, 2, 2, False, False, True, False)'
p55
(lp56
F0
aF0
aF0
aF1
asS'(-1, 2, 2, False, True, True, False)'
p57
(lp58
F0
aF0
aF5.4000000000000004
aF0
asS'(-1, 1, 1, True, False, True, False)'
p59
(lp60
F0
aF0
aF0
aF0
asS'(3, 0, 0, False, False, False, False)'
p61
(lp62
F0
aF0
aF0
aF0
asS'(9, 0, 1, True, True, True, True)'
p63
(lp64
F0
aF0
aF0
aF0
asS'(-1, 0, 1, True, True, False, True)'
p65
(lp66
F0
aF0.5
aF0
aF0
asa(dp67
(I-1
I0
I0
I00
I00
I00
I01
tp68
(dp69
I0
F0.050000000000000017
sI1
F0.84999999999999987
sI2
F0.050000000000000017
sI3
F0.050000000000000017
ss(I3
I0
I0
I00
I01
I01
I00
tp70
(dp71
I0
F0.050000000000000017
sI1
F0.050000000000000017
sI2
F0.84999999999999987
sI3
F0.050000000000000017
ss(I-1
I0
I0
I00
I00
I00
I00
tp72
(dp73
I0
F0.84999999999999987
sI1
F0.050000000000000017
sI2
F0.050000000000000017
sI3
F0.050000000000000017
ss(I10
I0
I0
I01
I01
I00
I01
tp74
(dp75
I0
F0.15000000000000002
sI1
F0.15000000000000002
sI2
F0.15000000000000002
sI3
F0.55000000000000004
ss(I3
I0
I0
I00
I01
I01
I01
tp76
(dp77
I0
F0.15000000000000002
sI1
F0.55000000000000004
sI2
F0.15000000000000002
sI3
F0.15000000000000002
ss(I-1
I1
I1
I01
I01
I01
I01
tp78
(dp79
I0
F0.15000000000000002
sI1
F0.15000000000000002
sI2
F0.55000000000000004
sI3
F0.15000000000000002
ss(I3
I0
I1
I00
I01
I01
I00
tp80
(dp81
I0
F0.15000000000000002
sI1
F0.15000000000000002
sI2
F0.15000000000000002
sI3
F0.55000000000000004
ss(I5
I0
I1
I01
I00
I00
I00
tp82
(dp83
I0
F0.15000000000000002
sI1
F0.55000000000000004
sI2
F0.15000000000000002
sI3
F0.15000000000000002
ss(I-1
I0
I1
I01
I01
I01
I01
tp84
(dp85
I0
F0.15000000000000002
sI1
F0.15000000000000002
sI2
F0.55000000000000004
sI3
F0.15000000000000002
ss(I0
I2
I2
I00
I01
I01
I00
tp86
(dp87
I0
F0.25
sI1
F0.25
sI2
F0.25
sI3
F0.25
ss(I-1
I1
I0
I01
I01
I01
I01
tp88
(dp89
I0
F0.15000000000000002
sI1
F0.55000000000000004
sI2
F0.15000000000000002
sI3
F0.15000000000000002
ss(I4
I0
I1
I01
I00
I00
I00
tp90
(dp91
I0
F0.15000000000000002
sI1
F0.55000000000000004
sI2
F0.15000000000000002
sI3
F0.15000000000000002
ss(I2
I1
I0
I01
I00
I01
I00
tp92
(dp93
I0
F0.08333333333333337
sI1
F0.34999999999999998
sI2
F0.48333333333333339
sI3
F0.08333333333333337
ss(I5
I0
I1
I01
I01
I00
I00
tp94
(dp95
I0
F0.050000000000000031
sI1
F0.45000000000000001
sI2
F0.050000000000000031
sI3
F0.45000000000000007
ss(I-1
I0
I1
I01
I01
I00
I01
tp96
(dp97
I0
F0.33333333333333337
sI1
F0.33333333333333337
sI2
F0.33333333333333331
sI3
F0
ss(I9
I0
I1
I01
I01
I01
I01
tp98
(dp99
I0
F0.55000000000000004
sI1
F0.15000000000000002
sI2
F0.15000000000000002
sI3
F0.15000000000000002
ss(I-1
I1
I1
I01
I00
I01
I01
tp100
(dp101
I0
F0.15000000000000002
sI1
F0.15000000000000002
sI2
F0.55000000000000004
sI3
F0.15000000000000002
ss(I-1
I1
I1
I01
I00
I01
I00
tp102
(dp103
I0
F0.050000000000000017
sI1
F0.050000000000000017
sI2
F0.050000000000000017
sI3
F0.84999999999999987
ss(I3
I0
I1
I01
I01
I01
I01
tp104
(dp105
I0
F0.25
sI1
F0.25
sI2
F0.25
sI3
F0.25
ss(I-1
I2
I2
I00
I01
I01
I00
tp106
(dp107
I0
F0
sI1
F0.29411764705882354
sI2
F0.41176470588235298
sI3
F0.29411764705882354
ss(I-1
I2
I2
I00
I00
I01
I00
tp108
(dp109
I0
F0.15000000000000002
sI1
F0.55000000000000004
sI2
F0.15000000000000002
sI3
F0.15000000000000002
ss(I-1
I0
I0
I00
I01
I01
I01
tp110
(dp111
I0
F0.15000000000000002
sI1
F0.15000000000000002
sI2
F0.15000000000000002
sI3
F0.55000000000000004
ss(I3
I0
I0
I00
I00
I00
I00
tp112
(dp113
I0
F0.15000000000000002
sI1
F0.55000000000000004
sI2
F0.15000000000000002
sI3
F0.15000000000000002
ss(I-1
I0
I0
I00
I01
I01
I00
tp114
(dp115
I0
F0.050000000000000017
sI1
F0.050000000000000017
sI2
F0.44999999999999996
sI3
F0.4499999999999999
ss(I3
I0
I1
I00
I00
I01
I00
tp116
(dp117
I0
F0.15000000000000002
sI1
F0.15000000000000002
sI2
F0.55000000000000004
sI3
F0.15000000000000002
ss(I-1
I1
I1
I01
I00
I00
I01
tp118
(dp119
I0
F0.15000000000000002
sI1
F0.55000000000000004
sI2
F0.15000000000000002
sI3
F0.15000000000000002
ss(I2
I0
I1
I01
I01
I01
I01
tp120
(dp121
I0
F0.55000000000000004
sI1
F0.15000000000000002
sI2
F0.15000000000000002
sI3
F0.15000000000000002
ss(I7
I1
I1
I01
I01
I01
I01
tp122
(dp123
I0
F0.55000000000000004
sI1
F0.15000000000000002
sI2
F0.15000000000000002
sI3
F0.15000000000000002
ss(I5
I1
I0
I00
I00
I01
I01
tp124
(dp125
I0
F0.55000000000000004
sI1
F0.15000000000000002
sI2
F0.15000000000000002
sI3
F0.15000000000000002
ss(I2
I2
I2
I00
I00
I01
I00
tp126
(dp127
I0
F0.15000000000000002
sI1
F0.15000000000000002
sI2
F0.15000000000000002
sI3
F0.55000000000000004
ss(I9
I1
I1
I01
I00
I01
I00
tp128
(dp129
I0
F0.55000000000000004
sI1
F0.15000000000000002
sI2
F0.15000000000000002
sI3
F0.15000000000000002
ss(I-1
I0
I1
I01
I00
I01
I01
tp130
(dp131
I0
F0.55000000000000004
sI1
F0.15000000000000002
sI2
F0.15000000000000002
sI3
F0.15000000000000002
ssa(dp132
g68
(dp133
I0
F0.20000000000000001
sI1
F0.40000000000000002
sI2
F0.20000000000000001
sI3
F0.20000000000000001
ssg70
(dp134
I0
F0.20000000000000001
sI1
F0.20000000000000001
sI2
F0.40000000000000002
sI3
F0.20000000000000001
ssg72
(dp135
I0
F0.40000000000000002
sI1
F0.20000000000000001
sI2
F0.20000000000000001
sI3
F0.20000000000000001
ssg74
(dp136
I0
F0.25
sI1
F0.25
sI2
F0.25
sI3
F0.25
ssg76
(dp137
I0
F0.25
sI1
F0.25
sI2
F0.25
sI3
F0.25
ssg78
(dp138
I0
F0.25
sI1
F0.25
sI2
F0.25
sI3
F0.25
ssg80
(dp139
I0
F0.25
sI1
F0.25
sI2
F0.25
sI3
F0.25
ssg82
(dp140
I0
F0.25
sI1
F0.25
sI2
F0.25
sI3
F0.25
ssg84
(dp141
I0
F0.25
sI1
F0.25
sI2
F0.25
sI3
F0.25
ssg86
(dp142
I0
F0.25
sI1
F0.25
sI2
F0.25
sI3
F0.25
ssg88
(dp143
I0
F0.25
sI1
F0.25
sI2
F0.25
sI3
F0.25
ssg90
(dp144
I0
F0.25
sI1
F0.25
sI2
F0.25
sI3
F0.25
ssg92
(dp145
I0
F0.17222222222222222
sI1
F0.21666666666666662
sI2
F0.43888888888888883
sI3
F0.17222222222222222
ssg94
(dp146
I0
F0.20000000000000001
sI1
F0.20000000000000001
sI2
F0.20000000000000001
sI3
F0.40000000000000002
ssg96
(dp147
I0
F0.41666666666666669
sI1
F0.15000000000000002
sI2
F0.28333333333333333
sI3
F0.15000000000000002
ssg98
(dp148
I0
F0.25
sI1
F0.25
sI2
F0.25
sI3
F0.25
ssg100
(dp149
I0
F0.25
sI1
F0.25
sI2
F0.25
sI3
F0.25
ssg102
(dp150
I0
F0.20000000000000001
sI1
F0.20000000000000001
sI2
F0.20000000000000001
sI3
F0.40000000000000002
ssg104
(dp151
I0
F0.25
sI1
F0.25
sI2
F0.25
sI3
F0.25
ssg106
(dp152
I0
F0.11250000000000002
sI1
F0.29583333333333334
sI2
F0.19583333333333336
sI3
F0.39583333333333337
ssg108
(dp153
I0
F0.25
sI1
F0.25
sI2
F0.25
sI3
F0.25
ssg110
(dp154
I0
F0.25
sI1
F0.25
sI2
F0.25
sI3
F0.25
ssg112
(dp155
I0
F0.25
sI1
F0.25
sI2
F0.25
sI3
F0.25
ssg114
(dp156
I0
F0.20000000000000001
sI1
F0.20000000000000001
sI2
F0.40000000000000002
sI3
F0.20000000000000001
ssg116
(dp157
I0
F0.25
sI1
F0.25
sI2
F0.25
sI3
F0.25
ssg118
(dp158
I0
F0.25
sI1
F0.25
sI2
F0.25
sI3
F0.25
ssg120
(dp159
I0
F0.25
sI1
F0.25
sI2
F0.25
sI3
F0.25
ssg122
(dp160
I0
F0.25
sI1
F0.25
sI2
F0.25
sI3
F0.25
ssg124
(dp161
I0
F0.25
sI1
F0.25
sI2
F0.25
sI3
F0.25
ssg126
(dp162
I0
F0.25
sI1
F0.25
sI2
F0.25
sI3
F0.25
ssg128
(dp163
I0
F0.25
sI1
F0.25
sI2
F0.25
sI3
F0.25
ssg130
(dp164
I0
F0.25
sI1
F0.25
sI2
F0.25
sI3
F0.25
ssa(dp165
g68
F2
sg70
F2
sg72
F2
sg74
F1
sg76
F1
sg78
F1
sg80
F1
sg82
F1
sg84
F1
sg86
I0
sg88
F1
sg90
F1
sg92
F3
sg94
F2
sg96
F3
sg98
F1
sg100
F1
sg102
F2
sg104
I0
sg106
F4
sg108
F1
sg110
F1
sg112
F1
sg114
F2
sg116
F1
sg118
F1
sg120
F1
sg122
F1
sg124
F1
sg126
F1
sg128
F1
sg130
F1
sa.