(lp1
(dp2
S'(2, 0, 1, True, False, True, True)'
p3
(lp4
F0.90000000000000002
aF0
aF0
aF0
asS'(-1, 1, 0, False, True, True, False)'
p5
(lp6
F0
aF0
aF0
aF-0.5
asS'(0, 0, 0, False, False, False, False)'
p7
(lp8
F0
aF0
aF-0.5
aF0
asS'(-1, 0, 2, False, False, False, True)'
p9
(lp10
F0
aF0
aF0
aF0
asS'(14, 1, 0, True, False, False, False)'
p11
(lp12
F0
aF0
aF0
aF0
asS'(6, 1, 1, True, False, False, True)'
p13
(lp14
F0
aF0
aF0
aF0
asS'(8, 1, 1, True, False, False, True)'
p15
(lp16
F0
aF0
aF0
aF0.5
asS'(6, 0, 1, True, True, False, False)'
p17
(lp18
F0
aF0
aF0
aF0
asS'(2, 0, 0, True, False, False, False)'
p19
(lp20
F2.3817240000000002
aF0
aF0
aF0
asS'(14, 1, 1, True, False, False, True)'
p21
(lp22
F0
aF0
aF0
aF0
asS'(-1, 0, 1, True, False, True, False)'
p23
(lp24
F0
aF0
aF0
aF0
asS'(4, 0, 0, False, False, False, True)'
p25
(lp26
F0
aF0
aF0
aF0
asS'(4, 1, 0, True, True, False, True)'
p27
(lp28
F0
aF0
aF0
aF0
asS'(9, 1, 0, True, False, True, False)'
p29
(lp30
F0
aF0
aF0
aF0
asS'(3, 1, 0, True, True, False, True)'
p31
(lp32
F2.25
aF0
aF0
aF0.97200000000000009
asS'(2, 0, 1, True, False, True, False)'
p33
(lp34
F0
aF0
aF0.40000000000000002
aF0
asS'(2, 1, 0, False, False, False, False)'
p35
(lp36
F0.45000000000000001
aF0
aF0
aF0
asS'(-1, 0, 1, True, False, True, True)'
p37
(lp38
F0
aF0
aF0
aF0
asS'(4, 0, 0, False, False, True, True)'
p39
(lp40
F0
aF0
aF5.5
aF0
asS'(4, 1, 0, True, False, False, False)'
p41
(lp42
F0
aF0
aF0
aF0
asS'(13, 0, 1, True, False, True, False)'
p43
(lp44
F1
aF0
aF0
aF-0.5
asS'(-1, 0, 0, True, False, False, True)'
p45
(lp46
F0
aF0
aF0
aF0
asS'(3, 0, 1, True, False, True, True)'
p47
(lp48
F0
aF0
aF0
aF0
asS'(9, 0, 1, True, False, False, True)'
p49
(lp50
F0
aF0
aF0
aF0
asS'(2, 1, 0, False, True, True, False)'
p51
(lp52
F0
aF0
aF5.9500000000000002
aF0
asS'(2, 1, 0, True, False, False, False)'
p53
(lp54
F0
aF1.9178208000000003
aF1.8480856000000001
aF0
asS'(4, 0, 1, True, True, False, False)'
p55
(lp56
F0
aF0
aF0
aF0
asS'(-1, 1, 0, True, True, True, True)'
p57
(lp58
F1
aF0
aF0
aF0
asS'(-1, 0, 0, False, False, False, False)'
p59
(lp60
F0
aF0
aF0
aF0
asS'(2, 1, 0, True, True, True, True)'
p61
(lp62
F0
aF0.40000000000000002
aF0
aF0
asS'(5, 0, 1, True, True, False, True)'
p63
(lp64
F0
aF0.072000000000000008
aF0
aF0
asS'(13, 0, 1, True, False, True, True)'
p65
(lp66
F0
aF0
aF0
aF0
asS'(3, 0, 1, True, False, True, False)'
p67
(lp68
F0
aF0
aF0
aF0.90000000000000002
asS'(1, 0, 1, True, False, False, True)'
p69
(lp70
F0
aF0.074574400000000013
aF0
aF0
asS'(3, 0, 0, True, True, False, True)'
p71
(lp72
F0
aF0
aF-0.049999999999999989
aF0
asS'(3, 1, 0, True, True, False, False)'
p73
(lp74
F0
aF0
aF0.040000000000000008
aF0.90000000000000002
asS'(2, 0, 0, False, True, True, True)'
p75
(lp76
F0
aF0
aF0
aF6
asS'(2, 0, 0, True, True, True, False)'
p77
(lp78
F0.90000000000000002
aF0
aF0
aF0
asS'(3, 0, 0, False, True, False, False)'
p79
(lp80
F0
aF0
aF0
aF0
asS'(9, 0, 1, True, False, True, False)'
p81
(lp82
F0
aF0
aF0
aF0
asS'(4, 0, 0, True, False, False, True)'
p83
(lp84
F0
aF0
aF-0.5
aF0
asS'(5, 0, 0, False, False, False, True)'
p85
(lp86
F0
aF0
aF0
aF-0.5
asS'(14, 1, 0, True, True, True, False)'
p87
(lp88
F0
aF0
aF0
aF0
asS'(6, 0, 0, False, False, False, True)'
p89
(lp90
F0
aF0
aF0.41489280000000006
aF0
asS'(5, 0, 0, True, True, False, True)'
p91
(lp92
F0
aF0
aF0
aF0
asS'(6, 0, 1, True, True, True, False)'
p93
(lp94
F0
aF0
aF0
aF0
asS'(7, 0, 1, True, False, True, True)'
p95
(lp96
F0
aF0
aF0
aF0
asS'(6, 1, 0, True, True, True, True)'
p97
(lp98
F0
aF0
aF0
aF0
asS'(5, 1, 1, True, False, True, True)'
p99
(lp100
F0
aF0
aF1
aF0
asS'(2, 0, 0, True, True, False, False)'
p101
(lp102
F0
aF0.90000000000000002
aF0
aF0
asS'(5, 0, 0, True, True, False, False)'
p103
(lp104
F-0.5
aF-1
aF0
aF0
asS'(10, 1, 1, True, False, False, True)'
p105
(lp106
F0
aF0
aF0
aF0
asS'(13, 0, 0, True, False, True, False)'
p107
(lp108
F0
aF0
aF0
aF0
asS'(5, 1, 0, True, False, False, True)'
p109
(lp110
F0.5
aF0
aF0
aF0
asS'(5, 1, 0, True, True, False, False)'
p111
(lp112
F-0.5
aF0
aF0
aF0
asS'(6, 1, 0, True, False, False, False)'
p113
(lp114
F0
aF0
aF0
aF0
asS'(0, 0, 1, True, False, False, False)'
p115
(lp116
F-0.5
aF0
aF0
aF0
asS'(-1, 0, 0, True, True, True, True)'
p117
(lp118
F0
aF0
aF0
aF0.5
asS'(3, 0, 1, True, False, False, False)'
p119
(lp120
F0.90000000000000002
aF0
aF0
aF0
asS'(-1, 0, 0, False, False, False, True)'
p121
(lp122
F0
aF0
aF0
aF4.6675440000000004
asS'(10, 1, 0, True, False, False, True)'
p123
(lp124
F0
aF0
aF0
aF0
asS'(10, 1, 1, True, False, True, False)'
p125
(lp126
F0
aF0
aF0
aF0.5
asS'(3, 1, 1, True, False, True, True)'
p127
(lp128
F0
aF0.81000000000000005
aF0
aF0
asS'(-1, 1, 1, True, False, True, True)'
p129
(lp130
F0
aF0.5
aF0
aF-0.70000000000000007
asS'(-1, 1, 0, True, True, False, True)'
p131
(lp132
F0
aF0
aF0
aF0
asS'(14, 1, 0, True, True, False, False)'
p133
(lp134
F0
aF0
aF0
aF0
asS'(4, 1, 0, True, False, False, True)'
p135
(lp136
F0
aF0
aF0
aF0
asS'(2, 0, 0, True, False, True, False)'
p137
(lp138
F0
aF0.90000000000000002
aF-0.5
aF0
asS'(5, 0, 0, True, False, False, True)'
p139
(lp140
F0
aF0
aF0
aF0
asS'(8, 1, 0, True, False, True, False)'
p141
(lp142
F0
aF0
aF0
aF0
asS'(-1, 1, 0, True, False, True, True)'
p143
(lp144
F0.5
aF0
aF0
aF0
asS'(2, 1, 0, True, False, True, False)'
p145
(lp146
F0
aF0
aF3.1440895200000005
aF0.90000000000000002
asS'(-1, 1, 0, True, False, False, False)'
p147
(lp148
F0
aF0.83896199999999999
aF0
aF0
asS'(-1, 0, 0, True, False, False, False)'
p149
(lp150
F0
aF0
aF0
aF0
asS'(4, 0, 1, True, False, False, True)'
p151
(lp152
F0
aF0
aF0
aF0
asS'(5, 1, 0, True, False, True, False)'
p153
(lp154
F0
aF0
aF0.5
aF0
asS'(0, 0, 1, False, False, True, False)'
p155
(lp156
F0
aF0
aF0
aF0
asS'(5, 1, 0, True, False, True, True)'
p157
(lp158
F0
aF0
aF0
aF0
asS'(-1, 0, 0, True, True, False, True)'
p159
(lp160
F-0.5
aF0
aF0
aF0
asS'(-1, 1, 1, True, True, False, False)'
p161
(lp162
F0.5
aF0
aF0
aF0
asS'(3, 0, 0, True, False, True, False)'
p163
(lp164
F0
aF0
aF1.5296040000000002
aF0
asS'(14, 1, 0, True, False, True, False)'
p165
(lp166
F0
aF0
aF0
aF-0.5
asS'(2, 0, 0, False, True, True, False)'
p167
(lp168
F0
aF-0.45999999999999996
aF0
aF5.5
asS'(-1, 1, 0, True, False, False, True)'
p169
(lp170
F0
aF-1.2000000000000002
aF0.5
aF0
asS'(7, 1, 0, True, False, False, True)'
p171
(lp172
F0
aF0
aF0
aF0
asS'(4, 0, 1, True, False, True, True)'
p173
(lp174
F0
aF0
aF0
aF0
asS'(3, 1, 0, True, False, False, True)'
p175
(lp176
F0.90000000000000002
aF0
aF0
aF1.4320000000000002
asS'(-1, 0, 0, True, False, True, False)'
p177
(lp178
F-0.443989472
aF-0.5
aF0
aF0
asS'(3, 1, 0, True, False, True, True)'
p179
(lp180
F0
aF0.90000000000000002
aF0
aF0
asS'(4, 0, 1, True, True, True, True)'
p181
(lp182
F0
aF0
aF0
aF0
asS'(2, 1, 1, True, True, True, False)'
p183
(lp184
F0
aF0
aF0.5
aF0
asS'(-1, 0, 1, False, False, False, False)'
p185
(lp186
F0
aF0.5
aF0
aF0
asS'(2, 1, 0, True, True, True, False)'
p187
(lp188
F0
aF2.5758000000000001
aF0
aF0
asS'(2, 1, 1, True, False, True, True)'
p189
(lp190
F0
aF0
aF0
aF0
asS'(-1, 1, 1, True, True, False, True)'
p191
(lp192
F0
aF0
aF0
aF0
asS'(0, 2, 2, False, True, True, False)'
p193
(lp194
F0
aF0
aF0
aF0.31738360000000004
asS'(-1, 1, 1, True, False, False, True)'
p195
(lp196
F0
aF0
aF0
aF0
asS'(2, 1, 1, False, False, False, False)'
p197
(lp198
F0
aF0
aF0.54000000000000004
aF0
asS'(3, 0, 0, False, False, False, True)'
p199
(lp200
F0
aF0
aF0
aF0
asS'(-1, 1, 0, True, False, True, False)'
p201
(lp202
F0
aF0
aF0
aF0
asS'(-1, 0, 1, True, True, False, False)'
p203
(lp204
F0
aF0.5
aF0
aF0
asS'(10, 1, 0, True, False, True, True)'
p205
(lp206
F0.5
aF0
aF0
aF0
asS'(10, 1, 1, True, True, False, True)'
p207
(lp208
F0
aF0
aF0
aF0.5
asS'(-1, 2, 2, False, True, True, False)'
p209
(lp210
F1.7979000000000001
aF0
aF0
aF0
asS'(5, 0, 0, True, False, False, False)'
p211
(lp212
F0
aF0
aF0
aF0
asS'(4, 1, 0, True, True, True, True)'
p213
(lp214
F0
aF0
aF0
aF0.90000000000000002
asS'(0, 1, 1, False, False, False, False)'
p215
(lp216
F0
aF0
aF0
aF0
asS'(3, 0, 0, True, False, False, True)'
p217
(lp218
F0
aF0
aF0
aF2.0628000000000002
asS'(-1, 0, 1, True, True, False, True)'
p219
(lp220
F0
aF0
aF-0.5
aF0
asS'(-1, 1, 1, True, False, False, False)'
p221
(lp222
F0
aF0
aF0
aF0
asS'(9, 1, 0, True, True, True, True)'
p223
(lp224
F0
aF0
aF0
aF0.080000000000000016
asS'(5, 1, 1, False, False, True, False)'
p225
(lp226
F0
aF0
aF0
aF9
asS'(10, 1, 1, True, False, False, False)'
p227
(lp228
F0
aF0
aF0.5
aF0
asS'(-1, 0, 1, True, False, False, False)'
p229
(lp230
F0.016697497600000003
aF0
aF0
aF0
asS'(-1, 1, 0, True, True, True, False)'
p231
(lp232
F0
aF0
aF0
aF0
asS'(3, 0, 2, False, True, True, True)'
p233
(lp234
F0
aF0
aF0.98000000000000009
aF0
asS'(0, 1, 1, False, False, False, True)'
p235
(lp236
F0
aF3
aF0
aF0
asS'(5, 1, 0, True, False, False, False)'
p237
(lp238
F0
aF0
aF0
aF0
asS'(3, 1, 1, True, False, True, False)'
p239
(lp240
F0
aF0
aF0.97200000000000009
aF0
asS'(10, 1, 1, False, False, True, True)'
p241
(lp242
F0
aF3
aF0
aF0
asS'(6, 1, 0, True, False, True, True)'
p243
(lp244
F0
aF0
aF0
aF0
asS'(5, 1, 1, True, True, False, True)'
p245
(lp246
F0.57999999999999996
aF0
aF0
aF0
asS'(5, 0, 1, True, True, False, False)'
p247
(lp248
F0
aF0
aF0
aF0
asS'(7, 0, 1, True, False, True, False)'
p249
(lp250
F0
aF0
aF0
aF0
asS'(10, 0, 1, True, False, False, False)'
p251
(lp252
F0
aF0.18784684800000004
aF0
aF0
asS'(2, 1, 0, False, True, False, False)'
p253
(lp254
F0
aF0
aF6
aF0
asS'(3, 1, 0, True, False, False, False)'
p255
(lp256
F0
aF0
aF0.90000000000000002
aF0
asS'(14, 1, 0, True, True, True, True)'
p257
(lp258
F0
aF0
aF0
aF0
asS'(4, 1, 0, False, True, True, True)'
p259
(lp260
F0
aF0
aF0
aF0
asS'(0, 1, 1, False, False, True, False)'
p261
(lp262
F0
aF0
aF0
aF0
asS'(6, 1, 0, True, False, False, True)'
p263
(lp264
F0
aF0
aF0
aF0
asS'(-1, 1, 0, False, True, False, False)'
p265
(lp266
F0
aF0
aF6.5
aF0
asS'(10, 1, 0, True, False, False, False)'
p267
(lp268
F0
aF0
aF0
aF0
asa(dp269
(I10
I1
I0
I01
I00
I00
I01
tp270
(dp271
I0
F0
sI1
F0.33333333333333337
sI2
F0
sI3
F0.66666666666666663
ss(I4
I0
I0
I00
I00
I01
I01
tp272
(dp273
I0
F0.44999999999999996
sI1
F0.050000000000000017
sI2
F0.4499999999999999
sI3
F0.050000000000000017
ss(I5
I1
I0
I01
I00
I01
I01
tp274
(dp275
I0
F0.15000000000000002
sI1
F0.15000000000000002
sI2
F0.55000000000000004
sI3
F0.15000000000000002
ss(I10
I1
I1
I01
I00
I00
I01
tp276
(dp277
I0
F0.55000000000000004
sI1
F0.15000000000000002
sI2
F0.15000000000000002
sI3
F0.15000000000000002
ss(I2
I1
I1
I01
I00
I01
I01
tp278
(dp279
I0
F0.55000000000000004
sI1
F0.15000000000000002
sI2
F0.15000000000000002
sI3
F0.15000000000000002
ss(I2
I1
I0
I00
I01
I00
I00
tp280
(dp281
I0
F0.15000000000000002
sI1
F0.15000000000000002
sI2
F0.55000000000000004
sI3
F0.15000000000000002
ss(I-1
I0
I0
I00
I00
I00
I01
tp282
(dp283
I0
F0.016666666666666705
sI1
F0.016666666666666705
sI2
F0.016666666666666705
sI3
F0.94999999999999996
ss(I4
I1
I0
I01
I01
I00
I01
tp284
(dp285
I0
F0.55000000000000004
sI1
F0.15000000000000002
sI2
F0.15000000000000002
sI3
F0.15000000000000002
ss(I14
I1
I1
I01
I00
I00
I01
tp286
(dp287
I0
F0.25
sI1
F0.25
sI2
F0.25
sI3
F0.25
ss(I10
I1
I0
I01
I00
I01
I01
tp288
(dp289
I0
F0.55000000000000004
sI1
F0.15000000000000002
sI2
F0.15000000000000002
sI3
F0.15000000000000002
ss(I5
I0
I0
I01
I00
I00
I01
tp290
(dp291
I0
F0.050000000000000031
sI1
F0.050000000000000031
sI2
F0.45000000000000001
sI3
F0.45000000000000007
ss(I5
I1
I0
I01
I00
I00
I01
tp292
(dp293
I0
F0.55000000000000004
sI1
F0.15000000000000002
sI2
F0.15000000000000002
sI3
F0.15000000000000002
ss(I0
I2
I2
I00
I01
I01
I00
tp294
(dp295
I0
F0.25
sI1
F0.25
sI2
F0.25
sI3
F0.25
ss(I-1
I1
I1
I01
I01
I00
I00
tp296
(dp297
I0
F0.55000000000000004
sI1
F0.15000000000000002
sI2
F0.15000000000000002
sI3
F0.15000000000000002
ss(I-1
I1
I0
I01
I01
I01
I01
tp298
(dp299
I0
F0.55000000000000004
sI1
F0.15000000000000002
sI2
F0.15000000000000002
sI3
F0.15000000000000002
ss(I3
I1
I0
I01
I01
I00
I01
tp300
(dp301
I0
F0.6166666666666667
sI1
F0.08333333333333337
sI2
F0.08333333333333337
sI3
F0.21666666666666667
ss(I5
I1
I1
I01
I00
I01
I01
tp302
(dp303
I0
F0.44999999999999996
sI1
F0.050000000000000017
sI2
F0.4499999999999999
sI3
F0.050000000000000017
ss(I6
I1
I0
I01
I00
I00
I01
tp304
(dp305
I0
F0.15000000000000002
sI1
F0.55000000000000004
sI2
F0.15000000000000002
sI3
F0.15000000000000002
ss(I2
I0
I1
I01
I00
I01
I01
tp306
(dp307
I0
F0.55000000000000004
sI1
F0.15000000000000002
sI2
F0.15000000000000002
sI3
F0.15000000000000002
ss(I6
I1
I1
I01
I00
I00
I01
tp308
(dp309
I0
F0.15000000000000002
sI1
F0.55000000000000004
sI2
F0.15000000000000002
sI3
F0.15000000000000002
ss(I-1
I0
I1
I01
I01
I00
I01
tp310
(dp311
I0
F0.15000000000000002
sI1
F0.15000000000000002
sI2
F0.15000000000000002
sI3
F0.55000000000000004
ss(I-1
I1
I0
I01
I01
I00
I01
tp312
(dp313
I0
F0
sI1
F0.52438812706127402
sI2
F0.14667592431869464
sI3
F0.32893594862003128
ss(I-1
I2
I2
I00
I01
I01
I00
tp314
(dp315
I0
F0.84999999999999998
sI1
F0.050000000000000037
sI2
F0.050000000000000037
sI3
F0.050000000000000037
ss(I6
I1
I0
I01
I00
I01
I01
tp316
(dp317
I0
F0.15000000000000002
sI1
F0.55000000000000004
sI2
F0.15000000000000002
sI3
F0.15000000000000002
ss(I-1
I0
I0
I01
I00
I00
I01
tp318
(dp319
I0
F0
sI1
F0.23809523809523814
sI2
F0.47619047619047622
sI3
F0.2857142857142857
ss(I14
I1
I0
I01
I01
I01
I00
tp320
(dp321
I0
F0.55000000000000004
sI1
F0.15000000000000002
sI2
F0.15000000000000002
sI3
F0.15000000000000002
ss(I2
I1
I1
I00
I00
I00
I00
tp322
(dp323
I0
F0.15000000000000002
sI1
F0.15000000000000002
sI2
F0.55000000000000004
sI3
F0.15000000000000002
ss(I3
I0
I0
I00
I00
I00
I01
tp324
(dp325
I0
F0.15000000000000002
sI1
F0.15000000000000002
sI2
F0.15000000000000002
sI3
F0.55000000000000004
ss(I-1
I1
I0
I00
I01
I01
I00
tp326
(dp327
I0
F0.15000000000000002
sI1
F0.15000000000000002
sI2
F0.55000000000000004
sI3
F0.15000000000000002
ss(I0
I1
I1
I00
I00
I01
I00
tp328
(dp329
I0
F0.15000000000000002
sI1
F0.15000000000000002
sI2
F0.55000000000000004
sI3
F0.15000000000000002
ss(I1
I0
I1
I01
I00
I00
I01
tp330
(dp331
I0
F0.050000000000000031
sI1
F0.45000000000000001
sI2
F0.050000000000000031
sI3
F0.45000000000000007
ss(I2
I1
I0
I01
I01
I01
I00
tp332
(dp333
I0
F0.050000000000000037
sI1
F0.84999999999999998
sI2
F0.050000000000000037
sI3
F0.050000000000000037
ss(I3
I0
I2
I00
I01
I01
I01
tp334
(dp335
I0
F0
sI1
F0.23809523809523814
sI2
F0.52380952380952384
sI3
F0.23809523809523811
ss(I5
I1
I1
I01
I01
I00
I01
tp336
(dp337
I0
F0.4499999999999999
sI1
F0.44999999999999996
sI2
F0.050000000000000017
sI3
F0.050000000000000017
ss(I-1
I0
I0
I01
I01
I00
I01
tp338
(dp339
I0
F0.15000000000000002
sI1
F0.55000000000000004
sI2
F0.15000000000000002
sI3
F0.15000000000000002
ss(I3
I0
I1
I01
I00
I01
I00
tp340
(dp341
I0
F0.1166666666666667
sI1
F0.1166666666666667
sI2
F0.1166666666666667
sI3
F0.65000000000000002
ss(I-1
I1
I1
I01
I01
I00
I01
tp342
(dp343
I0
F0.15000000000000002
sI1
F0.55000000000000004
sI2
F0.15000000000000002
sI3
F0.15000000000000002
ss(I2
I1
I0
I01
I00
I01
I00
tp344
(dp345
I0
F0
sI1
F0
sI2
F0.87499999999999989
sI3
F0.125
ss(I4
I0
I1
I01
I01
I00
I00
tp346
(dp347
I0
F0.050000000000000017
sI1
F0.44999999999999996
sI2
F0.4499999999999999
sI3
F0.050000000000000017
ss(I13
I0
I0
I01
I00
I01
I00
tp348
(dp349
I0
F0.44999999999999996
sI1
F0.050000000000000017
sI2
F0.4499999999999999
sI3
F0.050000000000000017
ss(I7
I0
I1
I01
I00
I01
I00
tp350
(dp351
I0
F0.15000000000000002
sI1
F0.15000000000000002
sI2
F0.55000000000000004
sI3
F0.15000000000000002
ss(I-1
I0
I0
I01
I01
I01
I01
tp352
(dp353
I0
F0.15000000000000002
sI1
F0.15000000000000002
sI2
F0.15000000000000002
sI3
F0.55000000000000004
ss(I5
I1
I0
I01
I00
I00
I00
tp354
(dp355
I0
F0.15000000000000002
sI1
F0.55000000000000004
sI2
F0.15000000000000002
sI3
F0.15000000000000002
ss(I2
I0
I0
I01
I00
I00
I00
tp356
(dp357
I0
F0.84999999999999998
sI1
F0.050000000000000037
sI2
F0.050000000000000037
sI3
F0.050000000000000037
ss(I14
I1
I0
I01
I00
I01
I00
tp358
(dp359
I0
F0.15000000000000002
sI1
F0.55000000000000004
sI2
F0.15000000000000002
sI3
F0.15000000000000002
ss(I4
I1
I0
I01
I00
I00
I00
tp360
(dp361
I0
F0.15000000000000002
sI1
F0.15000000000000002
sI2
F0.55000000000000004
sI3
F0.15000000000000002
ss(I2
I0
I1
I01
I00
I01
I00
tp362
(dp363
I0
F0.15000000000000002
sI1
F0.15000000000000002
sI2
F0.55000000000000004
sI3
F0.15000000000000002
ss(I5
I1
I0
I01
I01
I00
I00
tp364
(dp365
I0
F0.1166666666666667
sI1
F0.1166666666666667
sI2
F0.65000000000000002
sI3
F0.1166666666666667
ss(I-1
I0
I1
I01
I01
I00
I00
tp366
(dp367
I0
F0.15000000000000002
sI1
F0.55000000000000004
sI2
F0.15000000000000002
sI3
F0.15000000000000002
ss(I5
I0
I1
I01
I01
I00
I00
tp368
(dp369
I0
F0.55000000000000004
sI1
F0.15000000000000002
sI2
F0.15000000000000002
sI3
F0.15000000000000002
ss(I2
I0
I0
I01
I01
I00
I00
tp370
(dp371
I0
F0.15000000000000002
sI1
F0.55000000000000004
sI2
F0.15000000000000002
sI3
F0.15000000000000002
ss(I-1
I0
I0
I01
I00
I01
I00
tp372
(dp373
I0
F0.37721114334256278
sI1
F0
sI2
F0.40036550032079982
sI3
F0.22242335633663732
ss(I5
I1
I1
I00
I00
I01
I00
tp374
(dp375
I0
F0.15000000000000002
sI1
F0.15000000000000002
sI2
F0.15000000000000002
sI3
F0.55000000000000004
ss(I10
I1
I1
I00
I00
I01
I01
tp376
(dp377
I0
F0.15000000000000002
sI1
F0.55000000000000004
sI2
F0.15000000000000002
sI3
F0.15000000000000002
ss(I14
I1
I0
I01
I01
I01
I01
tp378
(dp379
I0
F0.15000000000000002
sI1
F0.15000000000000002
sI2
F0.55000000000000004
sI3
F0.15000000000000002
ss(I-1
I0
I1
I01
I00
I00
I00
tp380
(dp381
I0
F0.45000000000000001
sI1
F0.050000000000000031
sI2
F0.050000000000000031
sI3
F0.45000000000000007
ss(I-1
I1
I0
I01
I00
I00
I00
tp382
(dp383
I0
F0.0047619047619047866
sI1
F0.69999999999999996
sI2
F0.0047619047619047866
sI3
F0.29047619047619055
ss(I6
I0
I0
I00
I00
I00
I01
tp384
(dp385
I0
F0.050000000000000031
sI1
F0.050000000000000031
sI2
F0.45000000000000001
sI3
F0.45000000000000007
ss(I2
I1
I0
I01
I01
I01
I01
tp386
(dp387
I0
F0.15000000000000002
sI1
F0.55000000000000004
sI2
F0.15000000000000002
sI3
F0.15000000000000002
ss(I-1
I0
I2
I00
I00
I00
I01
tp388
(dp389
I0
F0.4499999999999999
sI1
F0.44999999999999996
sI2
F0.050000000000000017
sI3
F0.050000000000000017
ss(I3
I1
I0
I01
I00
I01
I01
tp390
(dp391
I0
F0.41666666666666663
sI1
F0.54999999999999993
sI2
F0.016666666666666684
sI3
F0.016666666666666684
ss(I2
I1
I0
I00
I01
I01
I00
tp392
(dp393
I0
F0.1166666666666667
sI1
F0.1166666666666667
sI2
F0.65000000000000002
sI3
F0.1166666666666667
ss(I3
I0
I1
I01
I00
I01
I01
tp394
(dp395
I0
F0.15000000000000002
sI1
F0.55000000000000004
sI2
F0.15000000000000002
sI3
F0.15000000000000002
ss(I3
I0
I0
I00
I01
I00
I00
tp396
(dp397
I0
F0.4499999999999999
sI1
F0.44999999999999996
sI2
F0.050000000000000017
sI3
F0.050000000000000017
ss(I6
I1
I0
I01
I01
I01
I01
tp398
(dp399
I0
F0.15000000000000002
sI1
F0.55000000000000004
sI2
F0.15000000000000002
sI3
F0.15000000000000002
ss(I5
I0
I0
I01
I01
I00
I01
tp400
(dp401
I0
F0.44999999999999996
sI1
F0.4499999999999999
sI2
F0.050000000000000017
sI3
F0.050000000000000017
ss(I6
I0
I1
I01
I01
I01
I00
tp402
(dp403
I0
F0.15000000000000002
sI1
F0.55000000000000004
sI2
F0.15000000000000002
sI3
F0.15000000000000002
ss(I7
I0
I1
I01
I00
I01
I01
tp404
(dp405
I0
F0.15000000000000002
sI1
F0.15000000000000002
sI2
F0.55000000000000004
sI3
F0.15000000000000002
ss(I3
I0
I0
I01
I00
I00
I01
tp406
(dp407
I0
F0.08333333333333337
sI1
F0.08333333333333337
sI2
F0.08333333333333337
sI3
F0.75
ss(I3
I1
I0
I01
I00
I00
I01
tp408
(dp409
I0
F0.51666666666666672
sI1
F0.1166666666666667
sI2
F0.1166666666666667
sI3
F0.25
ss(I10
I1
I1
I01
I00
I00
I00
tp410
(dp411
I0
F0.15000000000000002
sI1
F0.15000000000000002
sI2
F0.55000000000000004
sI3
F0.15000000000000002
ss(I9
I1
I0
I01
I01
I01
I01
tp412
(dp413
I0
F0.1166666666666667
sI1
F0.1166666666666667
sI2
F0.1166666666666667
sI3
F0.65000000000000002
ss(I10
I1
I1
I01
I01
I00
I01
tp414
(dp415
I0
F0.15000000000000002
sI1
F0.15000000000000002
sI2
F0.15000000000000002
sI3
F0.55000000000000004
ss(I2
I0
I0
I00
I01
I01
I00
tp416
(dp417
I0
F0.44999999999999996
sI1
F0.050000000000000017
sI2
F0.050000000000000017
sI3
F0.4499999999999999
ss(I-1
I0
I1
I00
I00
I00
I00
tp418
(dp419
I0
F0.1166666666666667
sI1
F0.65000000000000002
sI2
F0.1166666666666667
sI3
F0.1166666666666667
ss(I7
I1
I0
I01
I00
I00
I01
tp420
(dp421
I0
F0.55000000000000004
sI1
F0.15000000000000002
sI2
F0.15000000000000002
sI3
F0.15000000000000002
ss(I4
I0
I1
I01
I00
I00
I01
tp422
(dp423
I0
F0.15000000000000002
sI1
F0.15000000000000002
sI2
F0.55000000000000004
sI3
F0.15000000000000002
ss(I3
I1
I1
I01
I00
I01
I01
tp424
(dp425
I0
F0.1166666666666667
sI1
F0.65000000000000002
sI2
F0.1166666666666667
sI3
F0.1166666666666667
ss(I4
I1
I0
I01
I00
I00
I01
tp426
(dp427
I0
F0.66666666666666674
sI1
F0
sI2
F0.33333333333333331
sI3
F0
ss(I4
I0
I0
I01
I00
I00
I01
tp428
(dp429
I0
F0
sI1
F0.33333333333333337
sI2
F0.33333333333333331
sI3
F0.33333333333333337
ss(I5
I0
I1
I01
I01
I00
I01
tp430
(dp431
I0
F0.44999999999999996
sI1
F0.4499999999999999
sI2
F0.050000000000000017
sI3
F0.050000000000000017
ss(I4
I0
I1
I01
I00
I01
I01
tp432
(dp433
I0
F0.15000000000000002
sI1
F0.15000000000000002
sI2
F0.55000000000000004
sI3
F0.15000000000000002
ss(I9
I1
I0
I01
I00
I01
I00
tp434
(dp435
I0
F0.050000000000000031
sI1
F0.45000000000000001
sI2
F0.45000000000000007
sI3
F0.050000000000000031
ss(I-1
I0
I0
I01
I00
I00
I00
tp436
(dp437
I0
F0
sI1
F0.1700680272108844
sI2
F0.48979591836734687
sI3
F0.34013605442176875
ss(I-1
I1
I1
I01
I00
I01
I01
tp438
(dp439
I0
F0.1166666666666667
sI1
F0.25
sI2
F0.51666666666666672
sI3
F0.1166666666666667
ss(I-1
I1
I0
I00
I01
I00
I00
tp440
(dp441
I0
F0.15000000000000002
sI1
F0.15000000000000002
sI2
F0.55000000000000004
sI3
F0.15000000000000002
ss(I9
I0
I1
I01
I00
I01
I00
tp442
(dp443
I0
F0.55000000000000004
sI1
F0.15000000000000002
sI2
F0.15000000000000002
sI3
F0.15000000000000002
ss(I0
I0
I0
I00
I00
I00
I00
tp444
(dp445
I0
F0.88235294117647056
sI1
F0.11764705882352941
sI2
F0
sI3
F0
ss(I0
I1
I1
I00
I00
I00
I00
tp446
(dp447
I0
F0.15000000000000002
sI1
F0.55000000000000004
sI2
F0.15000000000000002
sI3
F0.15000000000000002
ss(I-1
I1
I0
I01
I00
I00
I01
tp448
(dp449
I0
F0.10380622837370242
sI1
F0.2289843272949319
sI2
F0.66720944433136575
sI3
F0
ss(I13
I0
I1
I01
I00
I01
I00
tp450
(dp451
I0
F0.65000000000000002
sI1
F0.1166666666666667
sI2
F0.1166666666666667
sI3
F0.1166666666666667
ss(I-1
I1
I1
I01
I00
I00
I01
tp452
(dp453
I0
F0.33333333333333337
sI1
F0
sI2
F0.33333333333333331
sI3
F0.33333333333333337
ss(I10
I1
I1
I01
I00
I01
I00
tp454
(dp455
I0
F0.15000000000000002
sI1
F0.15000000000000002
sI2
F0.15000000000000002
sI3
F0.55000000000000004
ss(I5
I0
I0
I00
I00
I00
I01
tp456
(dp457
I0
F0.65000000000000002
sI1
F0.1166666666666667
sI2
F0.1166666666666667
sI3
F0.1166666666666667
ss(I14
I1
I0
I01
I01
I00
I00
tp458
(dp459
I0
F0.84999999999999987
sI1
F0.050000000000000017
sI2
F0.050000000000000017
sI3
F0.050000000000000017
ss(I-1
I0
I1
I01
I00
I01
I01
tp460
(dp461
I0
F0.45000000000000001
sI1
F0.050000000000000031
sI2
F0.050000000000000031
sI3
F0.45000000000000007
ss(I10
I0
I1
I01
I00
I00
I00
tp462
(dp463
I0
F0.1166666666666667
sI1
F0.65000000000000002
sI2
F0.1166666666666667
sI3
F0.1166666666666667
ss(I-1
I1
I0
I01
I00
I01
I01
tp464
(dp465
I0
F0.4499999999999999
sI1
F0.44999999999999996
sI2
F0.050000000000000017
sI3
F0.050000000000000017
ss(I10
I1
I0
I01
I00
I00
I00
tp466
(dp467
I0
F0.33333333333333337
sI1
F0
sI2
F0
sI3
F0.66666666666666663
ss(I5
I0
I0
I01
I01
I00
I00
tp468
(dp469
I0
F0.21666666666666667
sI1
F0.08333333333333337
sI2
F0.6166666666666667
sI3
F0.08333333333333337
ss(I5
I1
I0
I01
I00
I01
I00
tp470
(dp471
I0
F0.15000000000000002
sI1
F0.15000000000000002
sI2
F0.55000000000000004
sI3
F0.15000000000000002
ss(I2
I0
I0
I01
I00
I01
I00
tp472
(dp473
I0
F0.1166666666666667
sI1
F0.65000000000000002
sI2
F0.1166666666666667
sI3
F0.1166666666666667
ss(I8
I1
I0
I01
I00
I01
I00
tp474
(dp475
I0
F0.15000000000000002
sI1
F0.15000000000000002
sI2
F0.15000000000000002
sI3
F0.55000000000000004
ss(I3
I1
I0
I01
I00
I00
I00
tp476
(dp477
I0
F0.1166666666666667
sI1
F0.1166666666666667
sI2
F0.65000000000000002
sI3
F0.1166666666666667
ss(I14
I1
I0
I01
I00
I00
I00
tp478
(dp479
I0
F0.15000000000000002
sI1
F0.55000000000000004
sI2
F0.15000000000000002
sI3
F0.15000000000000002
ss(I-1
I0
I0
I00
I00
I00
I00
tp480
(dp481
I0
F0.15000000000000002
sI1
F0.15000000000000002
sI2
F0.55000000000000004
sI3
F0.15000000000000002
ss(I3
I0
I1
I01
I00
I00
I00
tp482
(dp483
I0
F0.65000000000000002
sI1
F0.1166666666666667
sI2
F0.1166666666666667
sI3
F0.1166666666666667
ss(I6
I0
I1
I01
I01
I00
I00
tp484
(dp485
I0
F0.15000000000000002
sI1
F0.55000000000000004
sI2
F0.15000000000000002
sI3
F0.15000000000000002
ss(I0
I0
I1
I01
I00
I00
I00
tp486
(dp487
I0
F0.1166666666666667
sI1
F0.51666666666666672
sI2
F0.25
sI3
F0.1166666666666667
ss(I2
I0
I0
I00
I01
I01
I01
tp488
(dp489
I0
F0.15000000000000002
sI1
F0.15000000000000002
sI2
F0.15000000000000002
sI3
F0.55000000000000004
ss(I3
I1
I1
I01
I00
I01
I00
tp490
(dp491
I0
F0.15000000000000002
sI1
F0.15000000000000002
sI2
F0.55000000000000004
sI3
F0.15000000000000002
ss(I2
I1
I0
I01
I00
I00
I00
tp492
(dp493
I0
F0
sI1
F0.375
sI2
F0.62500000000000011
sI3
F0
ss(I3
I0
I0
I01
I00
I01
I00
tp494
(dp495
I0
F0.050000000000000037
sI1
F0.050000000000000037
sI2
F0.84999999999999998
sI3
F0.050000000000000037
ss(I-1
I1
I0
I01
I01
I01
I00
tp496
(dp497
I0
F0.15000000000000002
sI1
F0.15000000000000002
sI2
F0.55000000000000004
sI3
F0.15000000000000002
ss(I3
I1
I0
I01
I01
I00
I00
tp498
(dp499
I0
F0.1166666666666667
sI1
F0.1166666666666667
sI2
F0.1166666666666667
sI3
F0.65000000000000002
ss(I4
I1
I0
I00
I01
I01
I01
tp500
(dp501
I0
F0.15000000000000002
sI1
F0.15000000000000002
sI2
F0.15000000000000002
sI3
F0.55000000000000004
ss(I6
I1
I0
I01
I00
I00
I00
tp502
(dp503
I0
F0.050000000000000031
sI1
F0.45000000000000001
sI2
F0.45000000000000007
sI3
F0.050000000000000031
ss(I0
I0
I1
I00
I00
I01
I00
tp504
(dp505
I0
F0.15000000000000002
sI1
F0.15000000000000002
sI2
F0.55000000000000004
sI3
F0.15000000000000002
ss(I5
I0
I0
I01
I00
I00
I00
tp506
(dp507
I0
F0.84999999999999987
sI1
F0.050000000000000017
sI2
F0.050000000000000017
sI3
F0.050000000000000017
ss(I0
I1
I1
I00
I00
I00
I01
tp508
(dp509
I0
F0.15000000000000002
sI1
F0.55000000000000004
sI2
F0.15000000000000002
sI3
F0.15000000000000002
ss(I2
I0
I0
I01
I01
I01
I00
tp510
(dp511
I0
F0.65000000000000002
sI1
F0.1166666666666667
sI2
F0.1166666666666667
sI3
F0.1166666666666667
ss(I13
I0
I1
I01
I00
I01
I01
tp512
(dp513
I0
F0.15000000000000002
sI1
F0.55000000000000004
sI2
F0.15000000000000002
sI3
F0.15000000000000002
ss(I4
I0
I0
I00
I00
I00
I01
tp514
(dp515
I0
F0.15000000000000002
sI1
F0.55000000000000004
sI2
F0.15000000000000002
sI3
F0.15000000000000002
ss(I-1
I1
I1
I01
I00
I00
I00
tp516
(dp517
I0
F0.15000000000000002
sI1
F0.55000000000000004
sI2
F0.15000000000000002
sI3
F0.15000000000000002
ss(I9
I0
I1
I01
I00
I00
I01
tp518
(dp519
I0
F0.15000000000000002
sI1
F0.15000000000000002
sI2
F0.55000000000000004
sI3
F0.15000000000000002
ss(I8
I1
I1
I01
I00
I00
I01
tp520
(dp521
I0
F0.15000000000000002
sI1
F0.15000000000000002
sI2
F0.15000000000000002
sI3
F0.55000000000000004
ss(I2
I1
I0
I00
I00
I00
I00
tp522
(dp523
I0
F0.54999999999999993
sI1
F0.016666666666666694
sI2
F0.41666666666666663
sI3
F0.016666666666666694
ss(I4
I0
I1
I01
I01
I01
I01
tp524
(dp525
I0
F0.15000000000000002
sI1
F0.15000000000000002
sI2
F0.55000000000000004
sI3
F0.15000000000000002
ss(I-1
I0
I1
I01
I00
I01
I00
tp526
(dp527
I0
F0
sI1
F0.66666666666666674
sI2
F0.33333333333333331
sI3
F0
ss(I4
I1
I0
I01
I01
I01
I01
tp528
(dp529
I0
F0.375
sI1
F0
sI2
F0
sI3
F0.625
ss(I3
I0
I0
I01
I01
I00
I01
tp530
(dp531
I0
F0.45000000000000001
sI1
F0.050000000000000031
sI2
F0.45000000000000007
sI3
F0.050000000000000031
ss(I-1
I1
I0
I01
I00
I01
I00
tp532
(dp533
I0
F0
sI1
F0
sI2
F0.33333333333333337
sI3
F0.66666666666666663
ss(I2
I1
I1
I01
I01
I01
I00
tp534
(dp535
I0
F0.15000000000000002
sI1
F0.15000000000000002
sI2
F0.55000000000000004
sI3
F0.15000000000000002
ssa(dp536
g270
(dp537
I0
F0.15000000000000002
sI1
F0.28333333333333333
sI2
F0.15000000000000002
sI3
F0.41666666666666669
ssg272
(dp538
I0
F0.40000000000000002
sI1
F0.20000000000000001
sI2
F0.20000000000000001
sI3
F0.20000000000000001
ssg274
(dp539
I0
F0.25
sI1
F0.25
sI2
F0.25
sI3
F0.25
ssg276
(dp540
I0
F0.25
sI1
F0.25
sI2
F0.25
sI3
F0.25
ssg278
(dp541
I0
F0.25
sI1
F0.25
sI2
F0.25
sI3
F0.25
ssg280
(dp542
I0
F0.25
sI1
F0.25
sI2
F0.25
sI3
F0.25
ssg282
(dp543
I0
F0.13000000000000003
sI1
F0.13000000000000003
sI2
F0.13000000000000003
sI3
F0.60999999999999999
ssg284
(dp544
I0
F0.25
sI1
F0.25
sI2
F0.25
sI3
F0.25
ssg286
(dp545
I0
F0.25
sI1
F0.25
sI2
F0.25
sI3
F0.25
ssg288
(dp546
I0
F0.25
sI1
F0.25
sI2
F0.25
sI3
F0.25
ssg290
(dp547
I0
F0.20000000000000001
sI1
F0.20000000000000001
sI2
F0.20000000000000001
sI3
F0.40000000000000002
ssg292
(dp548
I0
F0.25
sI1
F0.25
sI2
F0.25
sI3
F0.25
ssg294
(dp549
I0
F0.25
sI1
F0.25
sI2
F0.25
sI3
F0.25
ssg296
(dp550
I0
F0.25
sI1
F0.25
sI2
F0.25
sI3
F0.25
ssg298
(dp551
I0
F0.25
sI1
F0.25
sI2
F0.25
sI3
F0.25
ssg300
(dp552
I0
F0.43888888888888894
sI1
F0.17222222222222225
sI2
F0.17222222222222225
sI3
F0.21666666666666667
ssg302
(dp553
I0
F0.40000000000000002
sI1
F0.20000000000000001
sI2
F0.20000000000000001
sI3
F0.20000000000000001
ssg304
(dp554
I0
F0.25
sI1
F0.25
sI2
F0.25
sI3
F0.25
ssg306
(dp555
I0
F0.25
sI1
F0.25
sI2
F0.25
sI3
F0.25
ssg308
(dp556
I0
F0.25
sI1
F0.25
sI2
F0.25
sI3
F0.25
ssg310
(dp557
I0
F0.25
sI1
F0.25
sI2
F0.25
sI3
F0.25
ssg312
(dp558
I0
F0.15769557823129252
sI1
F0.550143772575859
sI2
F0.11941828675577157
sI3
F0.17274236243707686
ssg314
(dp559
I0
F0.55000000000000004
sI1
F0.15000000000000002
sI2
F0.15000000000000002
sI3
F0.15000000000000002
ssg316
(dp560
I0
F0.25
sI1
F0.25
sI2
F0.25
sI3
F0.25
ssg318
(dp561
I0
F0.11250000000000002
sI1
F0.29583333333333334
sI2
F0.47916666666666669
sI3
F0.11250000000000002
ssg320
(dp562
I0
F0.25
sI1
F0.25
sI2
F0.25
sI3
F0.25
ssg322
(dp563
I0
F0.25
sI1
F0.25
sI2
F0.25
sI3
F0.25
ssg324
(dp564
I0
F0.25
sI1
F0.25
sI2
F0.25
sI3
F0.25
ssg326
(dp565
I0
F0.25
sI1
F0.25
sI2
F0.25
sI3
F0.25
ssg328
(dp566
I0
F0.25
sI1
F0.25
sI2
F0.25
sI3
F0.25
ssg330
(dp567
I0
F0.20000000000000001
sI1
F0.20000000000000001
sI2
F0.20000000000000001
sI3
F0.40000000000000002
ssg332
(dp568
I0
F0.15000000000000002
sI1
F0.55000000000000004
sI2
F0.15000000000000002
sI3
F0.15000000000000002
ssg334
(dp569
I0
F0.11250000000000002
sI1
F0.19583333333333336
sI2
F0.39583333333333337
sI3
F0.29583333333333334
ssg336
(dp570
I0
F0.20000000000000001
sI1
F0.40000000000000002
sI2
F0.20000000000000001
sI3
F0.20000000000000001
ssg338
(dp571
I0
F0.25
sI1
F0.25
sI2
F0.25
sI3
F0.25
ssg340
(dp572
I0
F0.20000000000000001
sI1
F0.20000000000000001
sI2
F0.20000000000000001
sI3
F0.40000000000000002
ssg342
(dp573
I0
F0.25
sI1
F0.25
sI2
F0.25
sI3
F0.25
ssg344
(dp574
I0
F0.11111111111111112
sI1
F0.11111111111111112
sI2
F0.57777777777777772
sI3
F0.19999999999999996
ssg346
(dp575
I0
F0.20000000000000001
sI1
F0.40000000000000002
sI2
F0.20000000000000001
sI3
F0.20000000000000001
ssg348
(dp576
I0
F0.40000000000000002
sI1
F0.20000000000000001
sI2
F0.20000000000000001
sI3
F0.20000000000000001
ssg350
(dp577
I0
F0.25
sI1
F0.25
sI2
F0.25
sI3
F0.25
ssg352
(dp578
I0
F0.25
sI1
F0.25
sI2
F0.25
sI3
F0.25
ssg354
(dp579
I0
F0.25
sI1
F0.25
sI2
F0.25
sI3
F0.25
ssg356
(dp580
I0
F0.55000000000000004
sI1
F0.15000000000000002
sI2
F0.15000000000000002
sI3
F0.15000000000000002
ssg358
(dp581
I0
F0.25
sI1
F0.25
sI2
F0.25
sI3
F0.25
ssg360
(dp582
I0
F0.25
sI1
F0.25
sI2
F0.25
sI3
F0.25
ssg362
(dp583
I0
F0.25
sI1
F0.25
sI2
F0.25
sI3
F0.25
ssg364
(dp584
I0
F0.20000000000000001
sI1
F0.20000000000000001
sI2
F0.40000000000000002
sI3
F0.20000000000000001
ssg366
(dp585
I0
F0.25
sI1
F0.25
sI2
F0.25
sI3
F0.25
ssg368
(dp586
I0
F0.25
sI1
F0.25
sI2
F0.25
sI3
F0.25
ssg370
(dp587
I0
F0.25
sI1
F0.25
sI2
F0.25
sI3
F0.25
ssg372
(dp588
I0
F0.20744024957525758
sI1
F0.037500000000000012
sI2
F0.34001465433948158
sI3
F0.41504509608526086
ssg374
(dp589
I0
F0.25
sI1
F0.25
sI2
F0.25
sI3
F0.25
ssg376
(dp590
I0
F0.25
sI1
F0.25
sI2
F0.25
sI3
F0.25
ssg378
(dp591
I0
F0.25
sI1
F0.25
sI2
F0.25
sI3
F0.25
ssg380
(dp592
I0
F0.20000000000000001
sI1
F0.20000000000000001
sI2
F0.20000000000000001
sI3
F0.40000000000000002
ssg382
(dp593
I0
F0.19708994708994709
sI1
F0.25
sI2
F0.24153439153439157
sI3
F0.31137566137566142
ssg384
(dp594
I0
F0.20000000000000001
sI1
F0.20000000000000001
sI2
F0.20000000000000001
sI3
F0.40000000000000002
ssg386
(dp595
I0
F0.25
sI1
F0.25
sI2
F0.25
sI3
F0.25
ssg388
(dp596
I0
F0.20000000000000001
sI1
F0.40000000000000002
sI2
F0.20000000000000001
sI3
F0.20000000000000001
ssg390
(dp597
I0
F0.41666666666666669
sI1
F0.28333333333333333
sI2
F0.15000000000000002
sI3
F0.15000000000000002
ssg392
(dp598
I0
F0.20000000000000001
sI1
F0.20000000000000001
sI2
F0.40000000000000002
sI3
F0.20000000000000001
ssg394
(dp599
I0
F0.25
sI1
F0.25
sI2
F0.25
sI3
F0.25
ssg396
(dp600
I0
F0.20000000000000001
sI1
F0.40000000000000002
sI2
F0.20000000000000001
sI3
F0.20000000000000001
ssg398
(dp601
I0
F0.25
sI1
F0.25
sI2
F0.25
sI3
F0.25
ssg400
(dp602
I0
F0.40000000000000002
sI1
F0.20000000000000001
sI2
F0.20000000000000001
sI3
F0.20000000000000001
ssg402
(dp603
I0
F0.25
sI1
F0.25
sI2
F0.25
sI3
F0.25
ssg404
(dp604
I0
F0.25
sI1
F0.25
sI2
F0.25
sI3
F0.25
ssg406
(dp605
I0
F0.17222222222222225
sI1
F0.17222222222222225
sI2
F0.17222222222222225
sI3
F0.48333333333333334
ssg408
(dp606
I0
F0.40000000000000002
sI1
F0.20000000000000001
sI2
F0.20000000000000001
sI3
F0.20000000000000001
ssg410
(dp607
I0
F0.25
sI1
F0.25
sI2
F0.25
sI3
F0.25
ssg412
(dp608
I0
F0.20000000000000001
sI1
F0.20000000000000001
sI2
F0.20000000000000001
sI3
F0.40000000000000002
ssg414
(dp609
I0
F0.25
sI1
F0.25
sI2
F0.25
sI3
F0.25
ssg416
(dp610
I0
F0.40000000000000002
sI1
F0.20000000000000001
sI2
F0.20000000000000001
sI3
F0.20000000000000001
ssg418
(dp611
I0
F0.20000000000000001
sI1
F0.40000000000000002
sI2
F0.20000000000000001
sI3
F0.20000000000000001
ssg420
(dp612
I0
F0.25
sI1
F0.25
sI2
F0.25
sI3
F0.25
ssg422
(dp613
I0
F0.25
sI1
F0.25
sI2
F0.25
sI3
F0.25
ssg424
(dp614
I0
F0.20000000000000001
sI1
F0.40000000000000002
sI2
F0.20000000000000001
sI3
F0.20000000000000001
ssg426
(dp615
I0
F0.41666666666666669
sI1
F0.15000000000000002
sI2
F0.28333333333333333
sI3
F0.15000000000000002
ssg428
(dp616
I0
F0.15000000000000002
sI1
F0.41666666666666669
sI2
F0.28333333333333333
sI3
F0.15000000000000002
ssg430
(dp617
I0
F0.40000000000000002
sI1
F0.20000000000000001
sI2
F0.20000000000000001
sI3
F0.20000000000000001
ssg432
(dp618
I0
F0.25
sI1
F0.25
sI2
F0.25
sI3
F0.25
ssg434
(dp619
I0
F0.20000000000000001
sI1
F0.20000000000000001
sI2
F0.40000000000000002
sI3
F0.20000000000000001
ssg436
(dp620
I0
F0.090000000000000011
sI1
F0.36428571428571432
sI2
F0.14714285714285716
sI3
F0.39857142857142858
ssg438
(dp621
I0
F0.20000000000000001
sI1
F0.20000000000000001
sI2
F0.40000000000000002
sI3
F0.20000000000000001
ssg440
(dp622
I0
F0.25
sI1
F0.25
sI2
F0.25
sI3
F0.25
ssg442
(dp623
I0
F0.25
sI1
F0.25
sI2
F0.25
sI3
F0.25
ssg444
(dp624
I0
F0.73000000000000009
sI1
F0.090000000000000024
sI2
F0.090000000000000024
sI3
F0.090000000000000024
ssg446
(dp625
I0
F0.25
sI1
F0.25
sI2
F0.25
sI3
F0.25
ssg448
(dp626
I0
F0.094607843137254913
sI1
F0.35616109188773554
sI2
F0.47423106497500955
sI3
F0.075000000000000011
ssg450
(dp627
I0
F0.40000000000000002
sI1
F0.20000000000000001
sI2
F0.20000000000000001
sI3
F0.20000000000000001
ssg452
(dp628
I0
F0.41666666666666669
sI1
F0.15000000000000002
sI2
F0.28333333333333333
sI3
F0.15000000000000002
ssg454
(dp629
I0
F0.25
sI1
F0.25
sI2
F0.25
sI3
F0.25
ssg456
(dp630
I0
F0.40000000000000002
sI1
F0.20000000000000001
sI2
F0.20000000000000001
sI3
F0.20000000000000001
ssg458
(dp631
I0
F0.40000000000000002
sI1
F0.20000000000000001
sI2
F0.20000000000000001
sI3
F0.20000000000000001
ssg460
(dp632
I0
F0.20000000000000001
sI1
F0.20000000000000001
sI2
F0.20000000000000001
sI3
F0.40000000000000002
ssg462
(dp633
I0
F0.20000000000000001
sI1
F0.40000000000000002
sI2
F0.20000000000000001
sI3
F0.20000000000000001
ssg464
(dp634
I0
F0.20000000000000001
sI1
F0.40000000000000002
sI2
F0.20000000000000001
sI3
F0.20000000000000001
ssg466
(dp635
I0
F0.15000000000000002
sI1
F0.15000000000000002
sI2
F0.15000000000000002
sI3
F0.54999999999999993
ssg468
(dp636
I0
F0.21666666666666662
sI1
F0.17222222222222222
sI2
F0.43888888888888883
sI3
F0.17222222222222222
ssg470
(dp637
I0
F0.25
sI1
F0.25
sI2
F0.25
sI3
F0.25
ssg472
(dp638
I0
F0.20000000000000001
sI1
F0.40000000000000002
sI2
F0.20000000000000001
sI3
F0.20000000000000001
ssg474
(dp639
I0
F0.25
sI1
F0.25
sI2
F0.25
sI3
F0.25
ssg476
(dp640
I0
F0.20000000000000001
sI1
F0.20000000000000001
sI2
F0.40000000000000002
sI3
F0.20000000000000001
ssg478
(dp641
I0
F0.25
sI1
F0.25
sI2
F0.25
sI3
F0.25
ssg480
(dp642
I0
F0.25
sI1
F0.25
sI2
F0.25
sI3
F0.25
ssg482
(dp643
I0
F0.40000000000000002
sI1
F0.20000000000000001
sI2
F0.20000000000000001
sI3
F0.20000000000000001
ssg484
(dp644
I0
F0.25
sI1
F0.25
sI2
F0.25
sI3
F0.25
ssg486
(dp645
I0
F0.20000000000000001
sI1
F0.40000000000000002
sI2
F0.20000000000000001
sI3
F0.20000000000000001
ssg488
(dp646
I0
F0.25
sI1
F0.25
sI2
F0.25
sI3
F0.25
ssg490
(dp647
I0
F0.25
sI1
F0.25
sI2
F0.25
sI3
F0.25
ssg492
(dp648
I0
F0.11111111111111116
sI1
F0.24444444444444441
sI2
F0.53333333333333333
sI3
F0.11111111111111116
ssg494
(dp649
I0
F0.15000000000000002
sI1
F0.15000000000000002
sI2
F0.55000000000000004
sI3
F0.15000000000000002
ssg496
(dp650
I0
F0.25
sI1
F0.25
sI2
F0.25
sI3
F0.25
ssg498
(dp651
I0
F0.20000000000000001
sI1
F0.20000000000000001
sI2
F0.20000000000000001
sI3
F0.40000000000000002
ssg500
(dp652
I0
F0.25
sI1
F0.25
sI2
F0.25
sI3
F0.25
ssg502
(dp653
I0
F0.20000000000000001
sI1
F0.20000000000000001
sI2
F0.40000000000000002
sI3
F0.20000000000000001
ssg504
(dp654
I0
F0.25
sI1
F0.25
sI2
F0.25
sI3
F0.25
ssg506
(dp655
I0
F0.40000000000000002
sI1
F0.20000000000000001
sI2
F0.20000000000000001
sI3
F0.20000000000000001
ssg508
(dp656
I0
F0.25
sI1
F0.25
sI2
F0.25
sI3
F0.25
ssg510
(dp657
I0
F0.40000000000000002
sI1
F0.20000000000000001
sI2
F0.20000000000000001
sI3
F0.20000000000000001
ssg512
(dp658
I0
F0.25
sI1
F0.25
sI2
F0.25
sI3
F0.25
ssg514
(dp659
I0
F0.25
sI1
F0.25
sI2
F0.25
sI3
F0.25
ssg516
(dp660
I0
F0.25
sI1
F0.25
sI2
F0.25
sI3
F0.25
ssg518
(dp661
I0
F0.25
sI1
F0.25
sI2
F0.25
sI3
F0.25
ssg520
(dp662
I0
F0.25
sI1
F0.25
sI2
F0.25
sI3
F0.25
ssg522
(dp663
I0
F0.28333333333333333
sI1
F0.15000000000000002
sI2
F0.41666666666666669
sI3
F0.15000000000000002
ssg524
(dp664
I0
F0.25
sI1
F0.25
sI2
F0.25
sI3
F0.25
ssg526
(dp665
I0
F0.15000000000000002
sI1
F0.41666666666666669
sI2
F0.28333333333333333
sI3
F0.15000000000000002
ssg528
(dp666
I0
F0.41666666666666669
sI1
F0.1166666666666667
sI2
F0.1166666666666667
sI3
F0.34999999999999998
ssg530
(dp667
I0
F0.20000000000000001
sI1
F0.20000000000000001
sI2
F0.40000000000000002
sI3
F0.20000000000000001
ssg532
(dp668
I0
F0.15000000000000002
sI1
F0.15000000000000002
sI2
F0.15000000000000002
sI3
F0.54999999999999993
ssg534
(dp669
I0
F0.25
sI1
F0.25
sI2
F0.25
sI3
F0.25
ssa(dp670
g270
F3
sg272
F2
sg274
F1
sg276
F1
sg278
F1
sg280
F1
sg282
F5
sg284
F1
sg286
I0
sg288
F1
sg290
F2
sg292
F1
sg294
I0
sg296
F1
sg298
F1
sg300
F3
sg302
F2
sg304
F1
sg306
F1
sg308
F1
sg310
F1
sg312
F8
sg314
F4
sg316
F1
sg318
F4
sg320
F1
sg322
F1
sg324
F1
sg326
F1
sg328
F1
sg330
F2
sg332
F4
sg334
F4
sg336
F2
sg338
F1
sg340
F2
sg342
F1
sg344
F6
sg346
F2
sg348
F2
sg350
F1
sg352
F1
sg354
F1
sg356
F4
sg358
F1
sg360
F1
sg362
F1
sg364
F2
sg366
F1
sg368
F1
sg370
F1
sg372
F12
sg374
F1
sg376
F1
sg378
F1
sg380
F2
sg382
F9
sg384
F2
sg386
F1
sg388
F2
sg390
F3
sg392
F2
sg394
F1
sg396
F2
sg398
F1
sg400
F2
sg402
F1
sg404
F1
sg406
F3
sg408
F2
sg410
F1
sg412
F2
sg414
F1
sg416
F2
sg418
F2
sg420
F1
sg422
F1
sg424
F2
sg426
F3
sg428
F3
sg430
F2
sg432
F1
sg434
F2
sg436
F5
sg438
F2
sg440
F1
sg442
F1
sg444
F5
sg446
F1
sg448
F6
sg450
F2
sg452
F3
sg454
F1
sg456
F2
sg458
F2
sg460
F2
sg462
F2
sg464
F2
sg466
F3
sg468
F3
sg470
F1
sg472
F2
sg474
F1
sg476
F2
sg478
F1
sg480
F1
sg482
F2
sg484
F1
sg486
F2
sg488
F1
sg490
F1
sg492
F6
sg494
F4
sg496
F1
sg498
F2
sg500
F1
sg502
F2
sg504
F1
sg506
F2
sg508
F1
sg510
F2
sg512
F1
sg514
F1
sg516
F1
sg518
F1
sg520
F1
sg522
F3
sg524
F1
sg526
F3
sg528
F4
sg530
F2
sg532
F3
sg534
F1
sa.